; Function Attrs: nounwind uwtable
define ptr @l_Nat_foldRevM___rarg(ptr noundef %0, ptr noundef %1, ptr noundef %2, ptr noundef %3) #0 {
  %5 = ptrtoint ptr %1 to i64
  %6 = and i64 %5, 1
  %.not = icmp eq i64 %6, 0
  br i1 %.not, label %7, label %lean_inc.exit

7:                                                ; preds = %4
  %.val.i = load i32, ptr %1, align 4, !tbaa !9
  %8 = icmp sgt i32 %.val.i, 0
  br i1 %8, label %9, label %11, !prof !12

9:                                                ; preds = %7
  %10 = add nuw i32 %.val.i, 1
  store i32 %10, ptr %1, align 4, !tbaa !9
  br label %14

11:                                               ; preds = %7
  %.not.i8 = icmp eq i32 %.val.i, 0
  br i1 %.not.i8, label %14, label %12

12:                                               ; preds = %11
  tail call void @lean_inc_ref_cold(ptr noundef nonnull %1) #3
  br label %14

lean_inc.exit:                                    ; preds = %4
  %13 = tail call ptr @l_Nat_foldRevM_loop___rarg(ptr noundef %0, ptr noundef %1, ptr noundef %2, ptr noundef %1, ptr nonnull poison, ptr noundef %3)
  br label %lean_dec.exit

14:                                               ; preds = %12, %11, %9
  %15 = tail call ptr @l_Nat_foldRevM_loop___rarg(ptr noundef %0, ptr noundef nonnull %1, ptr noundef %2, ptr noundef nonnull %1, ptr nonnull poison, ptr noundef %3)
  %16 = load i32, ptr %1, align 4, !tbaa !9
  %17 = icmp sgt i32 %16, 1
  br i1 %17, label %18, label %20, !prof !12

18:                                               ; preds = %14
  %19 = add nsw i32 %16, -1
  store i32 %19, ptr %1, align 4, !tbaa !9
  br label %lean_dec.exit

20:                                               ; preds = %14
  %.not.i = icmp eq i32 %16, 0
  br i1 %.not.i, label %lean_dec.exit, label %21

21:                                               ; preds = %20
  tail call void @lean_dec_ref_cold(ptr noundef nonnull %1) #3
  br label %lean_dec.exit

lean_dec.exit:                                    ; preds = %21, %20, %18, %lean_inc.exit
  %22 = phi ptr [ %13, %lean_inc.exit ], [ %15, %18 ], [ %15, %20 ], [ %15, %21 ]
  ret ptr %22
}